target datalayout = "e-m:e-p270:32:32-p271:32:32-p272:64:64-i64:64-i128:128-f80:128-n8:16:32:64-S128"
target triple = "x86_64-unknown-linux-gnu"

%struct.VirtIOSCSICommon = type { %struct.VirtIODevice, %struct.VirtIOSCSIConf, i32, i32, ptr, ptr, ptr }
%struct.VirtIODevice = type { %struct.DeviceState, ptr, i8, i8, i16, i64, i64, i64, i64, ptr, i16, i32, i32, ptr, %struct.MemoryListener, i16, i8, i8, i8, i8, i8, i8, i8, i8, i8, ptr, ptr, i8, i8, ptr, ptr, %union.anon.1, %struct.EventNotifier, i8 }
%struct.DeviceState = type { %struct.Object, ptr, ptr, i8, i8, i64, ptr, i32, i8, ptr, %struct.NamedGPIOListHead, %struct.NamedClockListHead, %struct.BusStateHead, i32, i32, i32, %struct.ResettableState, ptr, %struct.MemReentrancyGuard }
%struct.Object = type { ptr, ptr, ptr, i32, ptr }
%struct.NamedGPIOListHead = type { ptr }
%struct.NamedClockListHead = type { ptr }
%struct.BusStateHead = type { ptr }
%struct.ResettableState = type { i32, i8, i8 }
%struct.MemReentrancyGuard = type { i8 }
%struct.MemoryListener = type { ptr, ptr, ptr, ptr, ptr, ptr, ptr, ptr, ptr, ptr, ptr, ptr, ptr, ptr, ptr, ptr, ptr, i32, ptr, ptr, %union.anon, %union.anon.0 }
%union.anon = type { %struct.QTailQLink }
%struct.QTailQLink = type { ptr, ptr }
%union.anon.0 = type { %struct.QTailQLink }
%union.anon.1 = type { %struct.QTailQLink }
%struct.EventNotifier = type { i32, i32, i8 }
%struct.VirtIOSCSIConf = type { i32, i32, i8, i32, i32, ptr, ptr, %struct.CharBackend, i32, ptr }
%struct.CharBackend = type { ptr, ptr, ptr, ptr, ptr, ptr, i32, i32 }

@.str = private unnamed_addr constant [30 x i8] c"../qemu/hw/scsi/virtio-scsi.c\00", align 1
@__func__.virtio_scsi_common_realize = private unnamed_addr constant [27 x i8] c"virtio_scsi_common_realize\00", align 1
@.str.1 = private unnamed_addr constant [74 x i8] c"Invalid number of queues (= %u), must be a positive integer less than %d.\00", align 1
@.str.2 = private unnamed_addr constant [52 x i8] c"invalid virtqueue_size property (= %u), must be > 2\00", align 1
@.str.3 = private unnamed_addr constant [14 x i8] c"virtio-device\00", align 1
@.str.4 = private unnamed_addr constant [105 x i8] c"/home/dtcxzyw/WorkSpace/Projects/compilers/llvm-opt-benchmark/bench/qemu/qemu/include/hw/virtio/virtio.h\00", align 1
@__func__.VIRTIO_DEVICE = private unnamed_addr constant [14 x i8] c"VIRTIO_DEVICE\00", align 1
@.str.5 = private unnamed_addr constant [19 x i8] c"virtio-scsi-common\00", align 1
@.str.6 = private unnamed_addr constant [110 x i8] c"/home/dtcxzyw/WorkSpace/Projects/compilers/llvm-opt-benchmark/bench/qemu/qemu/include/hw/virtio/virtio-scsi.h\00", align 1
@__func__.VIRTIO_SCSI_COMMON = private unnamed_addr constant [19 x i8] c"VIRTIO_SCSI_COMMON\00", align 1

; Function Attrs: nounwind sspstrong uwtable
define internal ptr @VIRTIO_SCSI_COMMON(ptr noundef %obj) #0 {
entry:
  %obj.addr = alloca ptr, align 8
  store ptr %obj, ptr %obj.addr, align 8
  %0 = load ptr, ptr %obj.addr, align 8
  %call = call ptr @object_dynamic_cast_assert(ptr noundef %0, ptr noundef @.str.5, ptr noundef @.str.6, i32 noundef 28, ptr noundef @__func__.VIRTIO_SCSI_COMMON)
  ret ptr %call
}

; Function Attrs: nounwind sspstrong uwtable
define internal ptr @VIRTIO_DEVICE(ptr noundef %obj) #0 {
entry:
  %obj.addr = alloca ptr, align 8
  store ptr %obj, ptr %obj.addr, align 8
  %0 = load ptr, ptr %obj.addr, align 8
  %call = call ptr @object_dynamic_cast_assert(ptr noundef %0, ptr noundef @.str.3, ptr noundef @.str.4, i32 noundef 85, ptr noundef @__func__.VIRTIO_DEVICE)
  ret ptr %call
}

; Function Attrs: nounwind sspstrong uwtable
define dso_local void @virtio_scsi_common_realize(ptr noundef %dev, ptr noundef %ctrl, ptr noundef %evt, ptr noundef %cmd, ptr noundef %errp) #0 {
entry:
  %dev.addr = alloca ptr, align 8
  %ctrl.addr = alloca ptr, align 8
  %evt.addr = alloca ptr, align 8
  %cmd.addr = alloca ptr, align 8
  %errp.addr = alloca ptr, align 8
  %vdev = alloca ptr, align 8
  %s = alloca ptr, align 8
  %i = alloca i32, align 4
  store ptr %dev, ptr %dev.addr, align 8
  store ptr %ctrl, ptr %ctrl.addr, align 8
  store ptr %evt, ptr %evt.addr, align 8
  store ptr %cmd, ptr %cmd.addr, align 8
  store ptr %errp, ptr %errp.addr, align 8
  %0 = load ptr, ptr %dev.addr, align 8
  %call = call ptr @VIRTIO_DEVICE(ptr noundef %0)
  store ptr %call, ptr %vdev, align 8
  %1 = load ptr, ptr %dev.addr, align 8
  %call1 = call ptr @VIRTIO_SCSI_COMMON(ptr noundef %1)
  store ptr %call1, ptr %s, align 8
  %2 = load ptr, ptr %vdev, align 8
  call void @virtio_init(ptr noundef %2, i16 noundef zeroext 8, i64 noundef 36)
  %3 = load ptr, ptr %s, align 8
  %conf = getelementptr inbounds %struct.VirtIOSCSICommon, ptr %3, i32 0, i32 1
  %num_queues = getelementptr inbounds %struct.VirtIOSCSIConf, ptr %conf, i32 0, i32 0
  %4 = load i32, ptr %num_queues, align 8
  %cmp = icmp eq i32 %4, -1
  br i1 %cmp, label %if.then, label %if.end

if.then:                                          ; preds = %entry
  %5 = load ptr, ptr %s, align 8
  %conf2 = getelementptr inbounds %struct.VirtIOSCSICommon, ptr %5, i32 0, i32 1
  %num_queues3 = getelementptr inbounds %struct.VirtIOSCSIConf, ptr %conf2, i32 0, i32 0
  store i32 1, ptr %num_queues3, align 8
  br label %if.end

if.end:                                           ; preds = %if.then, %entry
  %6 = load ptr, ptr %s, align 8
  %conf4 = getelementptr inbounds %struct.VirtIOSCSICommon, ptr %6, i32 0, i32 1
  %num_queues5 = getelementptr inbounds %struct.VirtIOSCSIConf, ptr %conf4, i32 0, i32 0
  %7 = load i32, ptr %num_queues5, align 8
  %cmp6 = icmp eq i32 %7, 0
  br i1 %cmp6, label %if.then10, label %lor.lhs.false

lor.lhs.false:                                    ; preds = %if.end
  %8 = load ptr, ptr %s, align 8
  %conf7 = getelementptr inbounds %struct.VirtIOSCSICommon, ptr %8, i32 0, i32 1
  %num_queues8 = getelementptr inbounds %struct.VirtIOSCSIConf, ptr %conf7, i32 0, i32 0
  %9 = load i32, ptr %num_queues8, align 8
  %cmp9 = icmp ugt i32 %9, 1022
  br i1 %cmp9, label %if.then10, label %if.end13

if.then10:                                        ; preds = %lor.lhs.false, %if.end
  %10 = load ptr, ptr %errp.addr, align 8
  %11 = load ptr, ptr %s, align 8
  %conf11 = getelementptr inbounds %struct.VirtIOSCSICommon, ptr %11, i32 0, i32 1
  %num_queues12 = getelementptr inbounds %struct.VirtIOSCSIConf, ptr %conf11, i32 0, i32 0
  %12 = load i32, ptr %num_queues12, align 8
  call void (ptr, ptr, i32, ptr, ptr, ...) @error_setg_internal(ptr noundef %10, ptr noundef @.str, i32 noundef 1211, ptr noundef @__func__.virtio_scsi_common_realize, ptr noundef @.str.1, i32 noundef %12, i32 noundef 1022)
  %13 = load ptr, ptr %vdev, align 8
  call void @virtio_cleanup(ptr noundef %13)
  br label %for.end

if.end13:                                         ; preds = %lor.lhs.false
  %14 = load ptr, ptr %s, align 8
  %conf14 = getelementptr inbounds %struct.VirtIOSCSICommon, ptr %14, i32 0, i32 1
  %virtqueue_size = getelementptr inbounds %struct.VirtIOSCSIConf, ptr %conf14, i32 0, i32 1
  %15 = load i32, ptr %virtqueue_size, align 4
  %cmp15 = icmp ule i32 %15, 2
  br i1 %cmp15, label %if.then16, label %if.end19

if.then16:                                        ; preds = %if.end13
  %16 = load ptr, ptr %errp.addr, align 8
  %17 = load ptr, ptr %s, align 8
  %conf17 = getelementptr inbounds %struct.VirtIOSCSICommon, ptr %17, i32 0, i32 1
  %virtqueue_size18 = getelementptr inbounds %struct.VirtIOSCSIConf, ptr %conf17, i32 0, i32 1
  %18 = load i32, ptr %virtqueue_size18, align 4
  call void (ptr, ptr, i32, ptr, ptr, ...) @error_setg_internal(ptr noundef %16, ptr noundef @.str, i32 noundef 1217, ptr noundef @__func__.virtio_scsi_common_realize, ptr noundef @.str.2, i32 noundef %18)
  br label %for.end

if.end19:                                         ; preds = %if.end13
  %19 = load ptr, ptr %s, align 8
  %conf20 = getelementptr inbounds %struct.VirtIOSCSICommon, ptr %19, i32 0, i32 1
  %num_queues21 = getelementptr inbounds %struct.VirtIOSCSIConf, ptr %conf20, i32 0, i32 0
  %20 = load i32, ptr %num_queues21, align 8
  %conv = zext i32 %20 to i64
  %call22 = call noalias ptr @g_malloc0_n(i64 noundef %conv, i64 noundef 8) #10
  %21 = load ptr, ptr %s, align 8
  %cmd_vqs = getelementptr inbounds %struct.VirtIOSCSICommon, ptr %21, i32 0, i32 6
  store ptr %call22, ptr %cmd_vqs, align 8
  %22 = load ptr, ptr %s, align 8
  %sense_size = getelementptr inbounds %struct.VirtIOSCSICommon, ptr %22, i32 0, i32 2
  store i32 96, ptr %sense_size, align 8
  %23 = load ptr, ptr %s, align 8
  %cdb_size = getelementptr inbounds %struct.VirtIOSCSICommon, ptr %23, i32 0, i32 3
  store i32 32, ptr %cdb_size, align 4
  %24 = load ptr, ptr %vdev, align 8
  %25 = load ptr, ptr %s, align 8
  %conf23 = getelementptr inbounds %struct.VirtIOSCSICommon, ptr %25, i32 0, i32 1
  %virtqueue_size24 = getelementptr inbounds %struct.VirtIOSCSIConf, ptr %conf23, i32 0, i32 1
  %26 = load i32, ptr %virtqueue_size24, align 4
  %27 = load ptr, ptr %ctrl.addr, align 8
  %call25 = call ptr @virtio_add_queue(ptr noundef %24, i32 noundef %26, ptr noundef %27)
  %28 = load ptr, ptr %s, align 8
  %ctrl_vq = getelementptr inbounds %struct.VirtIOSCSICommon, ptr %28, i32 0, i32 4
  store ptr %call25, ptr %ctrl_vq, align 8
  %29 = load ptr, ptr %vdev, align 8
  %30 = load ptr, ptr %s, align 8
  %conf26 = getelementptr inbounds %struct.VirtIOSCSICommon, ptr %30, i32 0, i32 1
  %virtqueue_size27 = getelementptr inbounds %struct.VirtIOSCSIConf, ptr %conf26, i32 0, i32 1
  %31 = load i32, ptr %virtqueue_size27, align 4
  %32 = load ptr, ptr %evt.addr, align 8
  %call28 = call ptr @virtio_add_queue(ptr noundef %29, i32 noundef %31, ptr noundef %32)
  %33 = load ptr, ptr %s, align 8
  %event_vq = getelementptr inbounds %struct.VirtIOSCSICommon, ptr %33, i32 0, i32 5
  store ptr %call28, ptr %event_vq, align 8
  store i32 0, ptr %i, align 4
  br label %for.cond

for.cond:                                         ; preds = %for.inc, %if.end19
  %34 = load i32, ptr %i, align 4
  %35 = load ptr, ptr %s, align 8
  %conf29 = getelementptr inbounds %struct.VirtIOSCSICommon, ptr %35, i32 0, i32 1
  %num_queues30 = getelementptr inbounds %struct.VirtIOSCSIConf, ptr %conf29, i32 0, i32 0
  %36 = load i32, ptr %num_queues30, align 8
  %cmp31 = icmp ult i32 %34, %36
  br i1 %cmp31, label %for.body, label %for.end

for.body:                                         ; preds = %for.cond
  %37 = load ptr, ptr %vdev, align 8
  %38 = load ptr, ptr %s, align 8
  %conf33 = getelementptr inbounds %struct.VirtIOSCSICommon, ptr %38, i32 0, i32 1
  %virtqueue_size34 = getelementptr inbounds %struct.VirtIOSCSIConf, ptr %conf33, i32 0, i32 1
  %39 = load i32, ptr %virtqueue_size34, align 4
  %40 = load ptr, ptr %cmd.addr, align 8
  %call35 = call ptr @virtio_add_queue(ptr noundef %37, i32 noundef %39, ptr noundef %40)
  %41 = load ptr, ptr %s, align 8
  %cmd_vqs36 = getelementptr inbounds %struct.VirtIOSCSICommon, ptr %41, i32 0, i32 6
  %42 = load ptr, ptr %cmd_vqs36, align 8
  %43 = load i32, ptr %i, align 4
  %idxprom = sext i32 %43 to i64
  %arrayidx = getelementptr ptr, ptr %42, i64 %idxprom
  store ptr %call35, ptr %arrayidx, align 8
  br label %for.inc

for.inc:                                          ; preds = %for.body
  %44 = load i32, ptr %i, align 4
  %inc = add i32 %44, 1
  store i32 %inc, ptr %i, align 4
  br label %for.cond, !llvm.loop !5

for.end:                                          ; preds = %for.cond, %if.then16, %if.then10
  ret void
}