; Function Attrs: nounwind sspstrong uwtable
define dso_local void @virtio_scsi_common_realize(ptr noundef %dev, ptr noundef %ctrl, ptr noundef %evt, ptr noundef %cmd, ptr noundef %errp) local_unnamed_addr #0 {
entry:
  %call.i = tail call ptr @object_dynamic_cast_assert(ptr noundef %dev, ptr noundef nonnull @.str.3, ptr noundef nonnull @.str.4, i32 noundef 85, ptr noundef nonnull @__func__.VIRTIO_DEVICE) #13
  %call.i27 = tail call ptr @object_dynamic_cast_assert(ptr noundef %dev, ptr noundef nonnull @.str.5, ptr noundef nonnull @.str.6, i32 noundef 28, ptr noundef nonnull @__func__.VIRTIO_SCSI_COMMON) #13
  tail call void @virtio_init(ptr noundef %call.i, i16 noundef zeroext 8, i64 noundef 36) #13
  %conf = getelementptr inbounds nuw i8, ptr %call.i27, i64 520
  %0 = load i32, ptr %conf, align 8
  %cmp = icmp eq i32 %0, -1
  br i1 %cmp, label %if.end.thread, label %if.end

if.end.thread:                                    ; preds = %entry
  store i32 1, ptr %conf, align 8
  br label %if.end13

if.end:                                           ; preds = %entry
  %1 = add i32 %0, -1023
  %or.cond = icmp ult i32 %1, -1022
  br i1 %or.cond, label %if.then10, label %if.end13

if.then10:                                        ; preds = %if.end
  tail call void (ptr, ptr, i32, ptr, ptr, ...) @error_setg_internal(ptr noundef %errp, ptr noundef nonnull @.str, i32 noundef 1211, ptr noundef nonnull @__func__.virtio_scsi_common_realize, ptr noundef nonnull @.str.1, i32 noundef %0, i32 noundef 1022) #13
  tail call void @virtio_cleanup(ptr noundef %call.i) #13
  br label %for.end

if.end13:                                         ; preds = %if.end.thread, %if.end
  %2 = phi i32 [ 1, %if.end.thread ], [ %0, %if.end ]
  %virtqueue_size = getelementptr inbounds nuw i8, ptr %call.i27, i64 524
  %3 = load i32, ptr %virtqueue_size, align 4
  %cmp15 = icmp ult i32 %3, 3
  br i1 %cmp15, label %if.then16, label %if.end19

if.then16:                                        ; preds = %if.end13
  tail call void (ptr, ptr, i32, ptr, ptr, ...) @error_setg_internal(ptr noundef %errp, ptr noundef nonnull @.str, i32 noundef 1217, ptr noundef nonnull @__func__.virtio_scsi_common_realize, ptr noundef nonnull @.str.2, i32 noundef %3) #13
  br label %for.end

if.end19:                                         ; preds = %if.end13
  %conv = zext nneg i32 %2 to i64
  %call22 = tail call noalias ptr @g_malloc0_n(i64 noundef %conv, i64 noundef 8) #14
  %cmd_vqs = getelementptr inbounds nuw i8, ptr %call.i27, i64 656
  store ptr %call22, ptr %cmd_vqs, align 8
  %sense_size = getelementptr inbounds nuw i8, ptr %call.i27, i64 632
  store i32 96, ptr %sense_size, align 8
  %cdb_size = getelementptr inbounds nuw i8, ptr %call.i27, i64 636
  store i32 32, ptr %cdb_size, align 4
  %4 = load i32, ptr %virtqueue_size, align 4
  %call25 = tail call ptr @virtio_add_queue(ptr noundef %call.i, i32 noundef %4, ptr noundef %ctrl) #13
  %ctrl_vq = getelementptr inbounds nuw i8, ptr %call.i27, i64 640
  store ptr %call25, ptr %ctrl_vq, align 8
  %5 = load i32, ptr %virtqueue_size, align 4
  %call28 = tail call ptr @virtio_add_queue(ptr noundef %call.i, i32 noundef %5, ptr noundef %evt) #13
  %event_vq = getelementptr inbounds nuw i8, ptr %call.i27, i64 648
  store ptr %call28, ptr %event_vq, align 8
  %6 = load i32, ptr %conf, align 8
  %cmp3128.not = icmp eq i32 %6, 0
  br i1 %cmp3128.not, label %for.end, label %for.body

for.body:                                         ; preds = %if.end19, %for.body
  %i.029 = phi i32 [ %inc, %for.body ], [ 0, %if.end19 ]
  %7 = load i32, ptr %virtqueue_size, align 4
  %call35 = tail call ptr @virtio_add_queue(ptr noundef %call.i, i32 noundef %7, ptr noundef %cmd) #13
  %8 = load ptr, ptr %cmd_vqs, align 8
  %idxprom = sext i32 %i.029 to i64
  %arrayidx = getelementptr ptr, ptr %8, i64 %idxprom
  store ptr %call35, ptr %arrayidx, align 8
  %inc = add nuw i32 %i.029, 1
  %9 = load i32, ptr %conf, align 8
  %cmp31 = icmp ult i32 %inc, %9
  br i1 %cmp31, label %for.body, label %for.end, !llvm.loop !5

for.end:                                          ; preds = %for.body, %if.end19, %if.then16, %if.then10
  ret void
}